target datalayout = "e-m:e-p270:32:32-p271:32:32-p272:64:64-i64:64-i128:128-f80:128-n8:16:32:64-S128"
target triple = "x86_64-pc-linux-gnu"

%struct.ImVec2 = type { float, float }
%struct.ImGuiStyle = type { float, float, %struct.ImVec2, float, float, float, %struct.ImVec2, %struct.ImVec2, i32, float, float, float, float, %struct.ImVec2, float, float, %struct.ImVec2, %struct.ImVec2, %struct.ImVec2, %struct.ImVec2, float, float, float, float, float, float, float, float, float, float, float, float, float, float, %struct.ImVec2, i32, %struct.ImVec2, %struct.ImVec2, float, %struct.ImVec2, %struct.ImVec2, %struct.ImVec2, %struct.ImVec2, float, i8, i8, i8, float, float, [56 x %struct.ImVec4], float, float, float, i32, i32 }
%struct.ImVec4 = type { float, float, float, float }
%struct.ImGuiIO = type { i32, i32, %struct.ImVec2, float, float, ptr, ptr, ptr, ptr, float, i8, ptr, %struct.ImVec2, i8, i8, i8, i8, i8, i8, i8, i8, i8, i8, i8, i8, i8, i8, i8, i8, i8, float, float, float, float, float, float, i8, i8, i8, i8, i8, i8, i8, i8, i8, i8, ptr, ptr, ptr, ptr, ptr, i8, i8, i8, i8, i8, i8, i8, float, i32, i32, i32, i32, %struct.ImVec2, ptr, %struct.ImVec2, [5 x i8], float, float, i32, i8, i8, i8, i8, i32, [154 x %struct.ImGuiKeyData], i8, %struct.ImVec2, [5 x %struct.ImVec2], [5 x double], [5 x i8], [5 x i8], [5 x i16], [5 x i16], [5 x i8], [5 x double], [5 x i8], [5 x i8], i8, i8, [5 x float], [5 x float], [5 x float], float, i8, i8, i16, %struct.ImVector, ptr, ptr, ptr }
%struct.ImGuiKeyData = type { i8, float, float, float }
%struct.ImVector = type { i32, i32, ptr }
%struct.ImGuiContext = type { i8, i8, %struct.ImGuiIO, %struct.ImGuiPlatformIO, %struct.ImGuiStyle, ptr, float, float, float, float, %struct.ImDrawListSharedData, double, i32, i32, i32, i32, i8, i8, i8, i8, ptr, [16 x i8], %struct.ImVector.1, %struct.ImVector.1, i32, i32, %struct.ImVector.2, %struct.ImVector.2, %struct.ImVector.2, %struct.ImVector.3, %struct.ImGuiStorage, i32, float, i32, ptr, ptr, ptr, ptr, ptr, ptr, %struct.ImVec2, i32, i32, float, %struct.ImVec2, %struct.ImVec2, i32, i32, i32, i32, i32, float, float, i8, i8, i8, i32, i32, float, i8, i8, i8, i8, i8, i8, i8, i8, %struct.ImVec2, ptr, i32, i32, %struct.ImGuiDeactivatedItemData, %struct.ImGuiDataTypeStorage, i32, float, double, double, double, %struct.ImBitArray, [154 x %struct.ImGuiKeyOwnerData], %struct.ImGuiKeyRoutingTable, i32, i8, i32, i32, i32, i32, %struct.ImGuiNextItemData, %struct.ImGuiLastItemData, %struct.ImGuiNextWindowData, i8, i32, %struct.ImVector.6, %struct.ImVector.7, %struct.ImVector.8, %struct.ImVector.9, %struct.ImVector.10, %struct.ImVector.11, %struct.ImVector.12, %struct.ImVector.12, %struct.ImVector.13, %struct.ImVector.14, i8, i8, i8, i8, i32, ptr, i32, i32, i32, i32, i32, i32, %struct.ImVector.9, i32, float, i32, i32, i32, i64, i8, i8, i8, i8, %struct.ImGuiNavItemData, i8, i8, i8, i32, i32, i32, i32, i32, i32, %struct.ImRect, %struct.ImRect, i32, i32, i32, %struct.ImGuiNavItemData, %struct.ImGuiNavItemData, %struct.ImGuiNavItemData, %struct.ImGuiNavItemData, i32, i32, i32, i32, i8, i8, i32, i32, ptr, ptr, ptr, float, float, i8, i32, %struct.ImVec2, %struct.ImVec2, float, i8, i8, i8, i32, i32, i32, [4 x i8], %struct.ImGuiPayload, %struct.ImRect, %struct.ImRect, i32, i32, float, i32, i32, i32, i32, %struct.ImVector.15, [16 x i8], i32, %struct.ImVector.16, ptr, i32, i32, %struct.ImVector.17, %struct.ImPool, %struct.ImVector.19, %struct.ImVector.20, ptr, %struct.ImPool.21, %struct.ImVector.23, %struct.ImVector.24, %struct.ImGuiBoxSelectState, ptr, i32, %struct.ImVector.25, %struct.ImPool.26, i32, i32, float, float, i32, i32, i32, float, %struct.ImVec2, %struct.ImGuiInputTextState, %struct.ImGuiInputTextDeactivatedState, %struct.ImFont, i32, %struct.ImGuiDataTypeStorage, i32, i32, i32, i32, i32, float, float, i32, %struct.ImVec4, %struct.ImGuiComboPreviewData, %struct.ImRect, i8, i16, float, float, float, i8, i8, float, float, float, i16, i16, ptr, %struct.ImVector.28, %struct.ImVector.30, %struct.ImGuiTypingSelectState, %struct.ImGuiPlatformImeData, %struct.ImGuiPlatformImeData, i8, float, %struct.ImGuiTextBuffer, %struct.ImVector.31, %struct.ImChunkStream, %struct.ImChunkStream.32, %struct.ImVector.33, i32, [10 x ptr], i8, i32, ptr, ptr, %struct.ImGuiTextBuffer, ptr, ptr, float, i8, i32, i32, i32, ptr, ptr, %struct.ImVec2, i8, i32, %struct.ImGuiErrorRecoveryState, ptr, i32, i32, %struct.ImGuiTextBuffer, %struct.ImGuiTextIndex, i32, i32, i8, i8, i8, i32, i8, i8, i8, i32, float, %struct.ImVec4, %struct.ImGuiMetricsConfig, %struct.ImGuiIDStackTool, %struct.ImGuiDebugAllocInfo, [60 x float], i32, i32, float, i32, i32, i32, %struct.ImVector.28, [64 x i8] }
%struct.ImGuiPlatformIO = type { ptr, ptr, ptr, ptr, ptr, ptr, ptr, i16, ptr }
%struct.ImDrawListSharedData = type <{ %struct.ImVec2, ptr, ptr, float, float, float, float, float, i32, %struct.ImVec4, %struct.ImVector.0, [48 x %struct.ImVec2], float, [64 x i8], [4 x i8] }>
%struct.ImVector.0 = type { i32, i32, ptr }
%struct.ImVector.1 = type { i32, i32, ptr }
%struct.ImVector.2 = type { i32, i32, ptr }
%struct.ImVector.3 = type { i32, i32, ptr }
%struct.ImGuiStorage = type { %struct.ImVector.4 }
%struct.ImVector.4 = type { i32, i32, ptr }
%struct.ImGuiDeactivatedItemData = type { i32, i32, i8, i8 }
%struct.ImBitArray = type { [5 x i32] }
%struct.ImGuiKeyOwnerData = type <{ i32, i32, i8, i8, [2 x i8] }>
%struct.ImGuiKeyRoutingTable = type { [154 x i16], %struct.ImVector.5, %struct.ImVector.5 }
%struct.ImVector.5 = type { i32, i32, ptr }
%struct.ImGuiNextItemData = type <{ i32, i32, i32, [4 x i8], i64, float, i32, i32, i8, i8, %struct.ImGuiDataTypeStorage, [2 x i8], i32, [4 x i8] }>
%struct.ImGuiLastItemData = type { i32, i32, i32, %struct.ImRect, %struct.ImRect, %struct.ImRect, %struct.ImRect, i32 }
%struct.ImGuiNextWindowData = type { i32, i32, i32, i32, %struct.ImVec2, %struct.ImVec2, %struct.ImVec2, %struct.ImVec2, %struct.ImVec2, i32, i32, i8, %struct.ImRect, ptr, ptr, float, %struct.ImVec2, i32 }
%struct.ImVector.6 = type { i32, i32, ptr }
%struct.ImVector.7 = type { i32, i32, ptr }
%struct.ImVector.8 = type { i32, i32, ptr }
%struct.ImVector.10 = type { i32, i32, ptr }
%struct.ImVector.11 = type { i32, i32, ptr }
%struct.ImVector.12 = type { i32, i32, ptr }
%struct.ImVector.13 = type { i32, i32, ptr }
%struct.ImVector.14 = type { i32, i32, ptr }
%struct.ImVector.9 = type { i32, i32, ptr }
%struct.ImGuiNavItemData = type { ptr, i32, i32, %struct.ImRect, i32, float, float, float, i64 }
%struct.ImGuiPayload = type <{ ptr, i32, i32, i32, i32, [33 x i8], i8, i8, [5 x i8] }>
%struct.ImVector.15 = type { i32, i32, ptr }
%struct.ImVector.16 = type { i32, i32, ptr }
%struct.ImVector.17 = type { i32, i32, ptr }
%struct.ImPool = type { %struct.ImVector.18, %struct.ImGuiStorage, i32, i32 }
%struct.ImVector.18 = type { i32, i32, ptr }
%struct.ImVector.19 = type { i32, i32, ptr }
%struct.ImVector.20 = type { i32, i32, ptr }
%struct.ImPool.21 = type { %struct.ImVector.22, %struct.ImGuiStorage, i32, i32 }
%struct.ImVector.22 = type { i32, i32, ptr }
%struct.ImVector.23 = type { i32, i32, ptr }
%struct.ImVector.24 = type { i32, i32, ptr }
%struct.ImGuiBoxSelectState = type <{ i32, i8, i8, i8, i8, i8, i16, i8, %struct.ImVec2, %struct.ImVec2, %struct.ImVec2, [4 x i8], ptr, i8, [3 x i8], %struct.ImRect, %struct.ImRect, %struct.ImRect, [4 x i8] }>
%struct.ImVector.25 = type { i32, i32, ptr }
%struct.ImPool.26 = type { %struct.ImVector.27, %struct.ImGuiStorage, i32, i32 }
%struct.ImVector.27 = type { i32, i32, ptr }
%struct.ImGuiInputTextState = type <{ ptr, ptr, i32, i32, i32, [4 x i8], ptr, %struct.ImVector.28, %struct.ImVector.28, %struct.ImVector.28, i32, %struct.ImVec2, float, i8, i8, i8, i8, i32, i32, [4 x i8] }>
%struct.ImGuiInputTextDeactivatedState = type { i32, %struct.ImVector.28 }
%struct.ImFont = type <{ %struct.ImVector.19, float, float, %struct.ImVector, %struct.ImVector.29, ptr, ptr, ptr, i16, i16, i16, i16, float, float, float, float, float, i32, i8, [1 x i8], [6 x i8] }>
%struct.ImVector.29 = type { i32, i32, ptr }
%struct.ImGuiDataTypeStorage = type { [8 x i8] }
%struct.ImGuiComboPreviewData = type { %struct.ImRect, %struct.ImVec2, %struct.ImVec2, %struct.ImVec2, float, i32 }
%struct.ImRect = type { %struct.ImVec2, %struct.ImVec2 }
%struct.ImVector.30 = type { i32, i32, ptr }
%struct.ImGuiTypingSelectState = type <{ %struct.ImGuiTypingSelectRequest, [64 x i8], i32, i32, float, i8, [3 x i8] }>
%struct.ImGuiTypingSelectRequest = type { i32, i32, ptr, i8, i8, i8 }
%struct.ImGuiPlatformImeData = type { i8, %struct.ImVec2, float }
%struct.ImVector.31 = type { i32, i32, ptr }
%struct.ImChunkStream = type { %struct.ImVector.28 }
%struct.ImChunkStream.32 = type { %struct.ImVector.28 }
%struct.ImVector.33 = type { i32, i32, ptr }
%struct.ImGuiErrorRecoveryState = type { i16, i16, i16, i16, i16, i16, i16, i16, i16, i16, i16 }
%struct.ImGuiTextBuffer = type { %struct.ImVector.28 }
%struct.ImGuiTextIndex = type <{ %struct.ImVector.10, i32, [4 x i8] }>
%struct.ImGuiMetricsConfig = type { i8, i8, i8, i8, i8, i8, i8, i8, i8, i32, i32, i32, i32 }
%struct.ImGuiIDStackTool = type { i32, i32, i32, %struct.ImVector.34, i8, float }
%struct.ImVector.34 = type { i32, i32, ptr }
%struct.ImGuiDebugAllocInfo = type { i32, i32, i16, [6 x %struct.ImGuiDebugAllocEntry] }
%struct.ImGuiDebugAllocEntry = type { i32, i16, i16 }
%struct.ImVector.28 = type { i32, i32, ptr }
%struct.ImGuiWindow = type <{ ptr, ptr, i32, i32, i32, [4 x i8], ptr, %struct.ImVec2, %struct.ImVec2, %struct.ImVec2, %struct.ImVec2, %struct.ImVec2, %struct.ImVec2, %struct.ImVec2, float, float, float, float, float, float, float, float, float, float, i32, i32, i32, i32, %struct.ImVec2, %struct.ImVec2, %struct.ImVec2, %struct.ImVec2, %struct.ImVec2, %struct.ImVec2, i8, i8, i8, i8, i8, i8, i8, i8, i8, i8, i8, i8, i8, i8, i8, i8, i16, i16, i16, i16, i16, i8, i8, i8, [3 x i8], i32, i8, i8, i8, i8, i32, %struct.ImVec2, %struct.ImVec2, [4 x i8], %struct.ImVector.30, %struct.ImGuiWindowTempData, %struct.ImRect, %struct.ImRect, %struct.ImRect, %struct.ImRect, %struct.ImRect, %struct.ImRect, %struct.ImRect, %struct.ImVec2ih, %struct.ImVec2ih, i32, float, float, [4 x i8], %struct.ImGuiStorage, %struct.ImVector.37, float, float, float, i32, ptr, %struct.ImDrawList, ptr, ptr, ptr, ptr, ptr, ptr, ptr, ptr, [2 x i32], [2 x %struct.ImRect], [2 x %struct.ImVec2], i32, i32, i32, i8, [3 x i8] }>
%struct.ImGuiWindowTempData = type { %struct.ImVec2, %struct.ImVec2, %struct.ImVec2, %struct.ImVec2, %struct.ImVec2, %struct.ImVec2, %struct.ImVec2, float, float, i8, i8, %struct.ImVec1, %struct.ImVec1, %struct.ImVec1, %struct.ImVec2, i32, i16, i16, i8, i8, i8, i8, %struct.ImVec2, %struct.ImGuiMenuColumns, i32, i32, %struct.ImVector.2, ptr, ptr, i32, i32, i32, i32, i32, i32, float, float, %struct.ImVector.19, %struct.ImVector.19 }
%struct.ImVec1 = type { float }
%struct.ImGuiMenuColumns = type <{ i32, i32, i16, i16, i16, i16, i16, [4 x i16], [2 x i8] }>
%struct.ImVec2ih = type { i16, i16 }
%struct.ImVector.37 = type { i32, i32, ptr }
%struct.ImDrawList = type { %struct.ImVector.38, %struct.ImVector, %struct.ImVector.39, i32, i32, ptr, ptr, ptr, %struct.ImVector.0, %struct.ImDrawCmdHeader, %struct.ImDrawListSplitter, %struct.ImVector.40, %struct.ImVector.41, %struct.ImVector.15, float, ptr }
%struct.ImVector.38 = type { i32, i32, ptr }
%struct.ImVector.39 = type { i32, i32, ptr }
%struct.ImDrawCmdHeader = type <{ %struct.ImVec4, i64, i32, [4 x i8] }>
%struct.ImDrawListSplitter = type { i32, i32, %struct.ImVector.20 }
%struct.ImVector.40 = type { i32, i32, ptr }
%struct.ImVector.41 = type { i32, i32, ptr }
%struct.ImGuiFocusScopeData = type { i32, i32 }

@GImGui = global ptr null, align 8

; Function Attrs: mustprogress uwtable
define void @_ZN5ImGui16SetNavFocusScopeEj(i32 noundef %0) #0 {
  %2 = alloca i32, align 4
  %3 = alloca ptr, align 8
  %4 = alloca i32, align 4
  %5 = alloca i32, align 4
  %6 = alloca %struct.ImGuiFocusScopeData, align 4
  %7 = alloca ptr, align 8
  %8 = alloca %struct.ImGuiFocusScopeData, align 4
  store i32 %0, ptr %2, align 4, !tbaa !125
  call void @llvm.lifetime.start.p0(i64 8, ptr %3) #16
  %9 = load ptr, ptr @GImGui, align 8, !tbaa !139
  store ptr %9, ptr %3, align 8, !tbaa !139
  %10 = load i32, ptr %2, align 4, !tbaa !125
  %11 = load ptr, ptr %3, align 8, !tbaa !139
  %12 = getelementptr inbounds nuw %struct.ImGuiContext, ptr %11, i32 0, i32 108
  store i32 %10, ptr %12, align 8, !tbaa !680
  %13 = load ptr, ptr %3, align 8, !tbaa !139
  %14 = getelementptr inbounds nuw %struct.ImGuiContext, ptr %13, i32 0, i32 114
  call void @_ZN8ImVectorI19ImGuiFocusScopeDataE6resizeEi(ptr noundef nonnull align 8 dereferenceable(16) %14, i32 noundef 0)
  %15 = load i32, ptr %2, align 4, !tbaa !125
  %16 = icmp eq i32 %15, 0
  br i1 %16, label %17, label %18

17:                                               ; preds = %1
  store i32 1, ptr %4, align 4
  br label %113

18:                                               ; preds = %1
  %19 = load i32, ptr %2, align 4, !tbaa !125
  %20 = load ptr, ptr %3, align 8, !tbaa !139
  %21 = getelementptr inbounds nuw %struct.ImGuiContext, ptr %20, i32 0, i32 84
  %22 = load i32, ptr %21, align 4, !tbaa !671
  %23 = icmp eq i32 %19, %22
  br i1 %23, label %24, label %66

24:                                               ; preds = %18
  call void @llvm.lifetime.start.p0(i64 4, ptr %5) #16
  %25 = load ptr, ptr %3, align 8, !tbaa !139
  %26 = getelementptr inbounds nuw %struct.ImGuiContext, ptr %25, i32 0, i32 95
  %27 = getelementptr inbounds nuw %struct.ImVector.9, ptr %26, i32 0, i32 0
  %28 = load i32, ptr %27, align 8, !tbaa !1337
  %29 = sub nsw i32 %28, 1
  store i32 %29, ptr %5, align 4, !tbaa !125
  br label %30

30:                                               ; preds = %62, %24
  %31 = load i32, ptr %5, align 4, !tbaa !125
  %32 = icmp sge i32 %31, 0
  br i1 %32, label %33, label %49

33:                                               ; preds = %30
  %34 = load ptr, ptr %3, align 8, !tbaa !139
  %35 = getelementptr inbounds nuw %struct.ImGuiContext, ptr %34, i32 0, i32 95
  %36 = getelementptr inbounds nuw %struct.ImVector.9, ptr %35, i32 0, i32 2
  %37 = load ptr, ptr %36, align 8, !tbaa !1474
  %38 = load i32, ptr %5, align 4, !tbaa !125
  %39 = sext i32 %38 to i64
  %40 = getelementptr inbounds %struct.ImGuiFocusScopeData, ptr %37, i64 %39
  %41 = getelementptr inbounds nuw %struct.ImGuiFocusScopeData, ptr %40, i32 0, i32 1
  %42 = load i32, ptr %41, align 4, !tbaa !1405
  %43 = load ptr, ptr %3, align 8, !tbaa !139
  %44 = getelementptr inbounds nuw %struct.ImGuiContext, ptr %43, i32 0, i32 34
  %45 = load ptr, ptr %44, align 8, !tbaa !389
  %46 = getelementptr inbounds nuw %struct.ImGuiWindow, ptr %45, i32 0, i32 2
  %47 = load i32, ptr %46, align 8, !tbaa !1007
  %48 = icmp eq i32 %42, %47
  br label %49

49:                                               ; preds = %33, %30
  %50 = phi i1 [ false, %30 ], [ %48, %33 ]
  br i1 %50, label %52, label %51

51:                                               ; preds = %49
  store i32 2, ptr %4, align 4
  call void @llvm.lifetime.end.p0(i64 4, ptr %5) #16
  br label %65

52:                                               ; preds = %49
  %53 = load ptr, ptr %3, align 8, !tbaa !139
  %54 = getelementptr inbounds nuw %struct.ImGuiContext, ptr %53, i32 0, i32 114
  %55 = load ptr, ptr %3, align 8, !tbaa !139
  %56 = getelementptr inbounds nuw %struct.ImGuiContext, ptr %55, i32 0, i32 95
  %57 = getelementptr inbounds nuw %struct.ImVector.9, ptr %56, i32 0, i32 2
  %58 = load ptr, ptr %57, align 8, !tbaa !1474
  %59 = load i32, ptr %5, align 4, !tbaa !125
  %60 = sext i32 %59 to i64
  %61 = getelementptr inbounds %struct.ImGuiFocusScopeData, ptr %58, i64 %60
  call void @_ZN8ImVectorI19ImGuiFocusScopeDataE9push_backERKS0_(ptr noundef nonnull align 8 dereferenceable(16) %54, ptr noundef nonnull align 4 dereferenceable(8) %61)
  br label %62

62:                                               ; preds = %52
  %63 = load i32, ptr %5, align 4, !tbaa !125
  %64 = add nsw i32 %63, -1
  store i32 %64, ptr %5, align 4, !tbaa !125
  br label %30, !llvm.loop !1475

65:                                               ; preds = %51
  br label %87

66:                                               ; preds = %18
  %67 = load i32, ptr %2, align 4, !tbaa !125
  %68 = load ptr, ptr %3, align 8, !tbaa !139
  %69 = getelementptr inbounds nuw %struct.ImGuiContext, ptr %68, i32 0, i32 107
  %70 = load ptr, ptr %69, align 8, !tbaa !481
  %71 = getelementptr inbounds nuw %struct.ImGuiWindow, ptr %70, i32 0, i32 102
  %72 = load i32, ptr %71, align 8, !tbaa !1080
  %73 = icmp eq i32 %67, %72
  br i1 %73, label %74, label %85

74:                                               ; preds = %66
  %75 = load ptr, ptr %3, align 8, !tbaa !139
  %76 = getelementptr inbounds nuw %struct.ImGuiContext, ptr %75, i32 0, i32 114
  call void @llvm.lifetime.start.p0(i64 8, ptr %6) #16
  %77 = getelementptr inbounds nuw %struct.ImGuiFocusScopeData, ptr %6, i32 0, i32 0
  %78 = load i32, ptr %2, align 4, !tbaa !125
  store i32 %78, ptr %77, align 4, !tbaa !1403
  %79 = getelementptr inbounds nuw %struct.ImGuiFocusScopeData, ptr %6, i32 0, i32 1
  %80 = load ptr, ptr %3, align 8, !tbaa !139
  %81 = getelementptr inbounds nuw %struct.ImGuiContext, ptr %80, i32 0, i32 107
  %82 = load ptr, ptr %81, align 8, !tbaa !481
  %83 = getelementptr inbounds nuw %struct.ImGuiWindow, ptr %82, i32 0, i32 2
  %84 = load i32, ptr %83, align 8, !tbaa !1007
  store i32 %84, ptr %79, align 4, !tbaa !1405
  call void @_ZN8ImVectorI19ImGuiFocusScopeDataE9push_backERKS0_(ptr noundef nonnull align 8 dereferenceable(16) %76, ptr noundef nonnull align 4 dereferenceable(8) %6)
  call void @llvm.lifetime.end.p0(i64 8, ptr %6) #16
  br label %86

85:                                               ; preds = %66
  store i32 1, ptr %4, align 4
  br label %113

86:                                               ; preds = %74
  br label %87

87:                                               ; preds = %86, %65
  call void @llvm.lifetime.start.p0(i64 8, ptr %7) #16
  %88 = load ptr, ptr %3, align 8, !tbaa !139
  %89 = getelementptr inbounds nuw %struct.ImGuiContext, ptr %88, i32 0, i32 107
  %90 = load ptr, ptr %89, align 8, !tbaa !481
  %91 = getelementptr inbounds nuw %struct.ImGuiWindow, ptr %90, i32 0, i32 97
  %92 = load ptr, ptr %91, align 8, !tbaa !1228
  store ptr %92, ptr %7, align 8, !tbaa !420
  br label %93

93:                                               ; preds = %108, %87
  %94 = load ptr, ptr %7, align 8, !tbaa !420
  %95 = icmp ne ptr %94, null
  br i1 %95, label %97, label %96

96:                                               ; preds = %93
  store i32 5, ptr %4, align 4
  call void @llvm.lifetime.end.p0(i64 8, ptr %7) #16
  br label %112

97:                                               ; preds = %93
  %98 = load ptr, ptr %3, align 8, !tbaa !139
  %99 = getelementptr inbounds nuw %struct.ImGuiContext, ptr %98, i32 0, i32 114
  call void @llvm.lifetime.start.p0(i64 8, ptr %8) #16
  %100 = getelementptr inbounds nuw %struct.ImGuiFocusScopeData, ptr %8, i32 0, i32 0
  %101 = load ptr, ptr %7, align 8, !tbaa !420
  %102 = getelementptr inbounds nuw %struct.ImGuiWindow, ptr %101, i32 0, i32 102
  %103 = load i32, ptr %102, align 8, !tbaa !1080
  store i32 %103, ptr %100, align 4, !tbaa !1403
  %104 = getelementptr inbounds nuw %struct.ImGuiFocusScopeData, ptr %8, i32 0, i32 1
  %105 = load ptr, ptr %7, align 8, !tbaa !420
  %106 = getelementptr inbounds nuw %struct.ImGuiWindow, ptr %105, i32 0, i32 2
  %107 = load i32, ptr %106, align 8, !tbaa !1007
  store i32 %107, ptr %104, align 4, !tbaa !1405
  call void @_ZN8ImVectorI19ImGuiFocusScopeDataE9push_backERKS0_(ptr noundef nonnull align 8 dereferenceable(16) %99, ptr noundef nonnull align 4 dereferenceable(8) %8)
  call void @llvm.lifetime.end.p0(i64 8, ptr %8) #16
  br label %108

108:                                              ; preds = %97
  %109 = load ptr, ptr %7, align 8, !tbaa !420
  %110 = getelementptr inbounds nuw %struct.ImGuiWindow, ptr %109, i32 0, i32 97
  %111 = load ptr, ptr %110, align 8, !tbaa !1228
  store ptr %111, ptr %7, align 8, !tbaa !420
  br label %93, !llvm.loop !1476

112:                                              ; preds = %96
  store i32 0, ptr %4, align 4
  br label %113

113:                                              ; preds = %112, %85, %17
  call void @llvm.lifetime.end.p0(i64 8, ptr %3) #16
  %114 = load i32, ptr %4, align 4
  switch i32 %114, label %116 [
    i32 0, label %115
    i32 1, label %115
  ]

115:                                              ; preds = %113, %113
  ret void

116:                                              ; preds = %113
  unreachable
}