; Function Attrs: mustprogress uwtable
define void @_ZN5ImGui16SetNavFocusScopeEj(i32 noundef %0) local_unnamed_addr #0 {
  %2 = alloca %struct.ImGuiFocusScopeData, align 4
  %3 = alloca %struct.ImGuiFocusScopeData, align 4
  %4 = load ptr, ptr @GImGui, align 8, !tbaa !216
  %5 = getelementptr inbounds nuw i8, ptr %4, i64 7912
  store i32 %0, ptr %5, align 8, !tbaa !826
  %6 = getelementptr inbounds nuw i8, ptr %4, i64 7936
  tail call void @_ZN8ImVectorI19ImGuiFocusScopeDataE6resizeEi(ptr noundef nonnull align 8 dereferenceable(16) %6, i32 noundef 0)
  %7 = icmp eq i32 %0, 0
  br i1 %7, label %.loopexit, label %8

8:                                                ; preds = %1
  %9 = getelementptr inbounds nuw i8, ptr %4, i64 7460
  %10 = load i32, ptr %9, align 4, !tbaa !609
  %11 = icmp eq i32 %0, %10
  br i1 %11, label %12, label %30

12:                                               ; preds = %8
  %13 = getelementptr inbounds nuw i8, ptr %4, i64 7784
  %14 = load i32, ptr %13, align 8, !tbaa !1039
  %15 = getelementptr inbounds nuw i8, ptr %4, i64 7792
  %16 = icmp sgt i32 %14, 0
  br i1 %16, label %.lr.ph, label %.critedge

.lr.ph:                                           ; preds = %12
  %17 = getelementptr inbounds nuw i8, ptr %4, i64 5016
  %18 = zext nneg i32 %14 to i64
  br label %19

19:                                               ; preds = %.lr.ph, %28
  %indvars.iv = phi i64 [ %18, %.lr.ph ], [ %indvars.iv.next, %28 ]
  %indvars.iv.next = add nsw i64 %indvars.iv, -1
  %20 = load ptr, ptr %15, align 8, !tbaa !1287
  %21 = getelementptr inbounds nuw %struct.ImGuiFocusScopeData, ptr %20, i64 %indvars.iv.next
  %22 = getelementptr inbounds nuw i8, ptr %21, i64 4
  %23 = load i32, ptr %22, align 4, !tbaa !1072
  %24 = load ptr, ptr %17, align 8, !tbaa !314
  %25 = getelementptr inbounds nuw i8, ptr %24, i64 16
  %26 = load i32, ptr %25, align 8, !tbaa !684
  %27 = icmp eq i32 %23, %26
  br i1 %27, label %28, label %.critedge

28:                                               ; preds = %19
  tail call void @_ZN8ImVectorI19ImGuiFocusScopeDataE9push_backERKS0_(ptr noundef nonnull align 8 dereferenceable(16) %6, ptr noundef nonnull align 4 dereferenceable(8) %21)
  %29 = icmp samesign ugt i64 %indvars.iv, 1
  br i1 %29, label %19, label %.critedge, !llvm.loop !1288

30:                                               ; preds = %8
  %31 = getelementptr inbounds nuw i8, ptr %4, i64 7904
  %32 = load ptr, ptr %31, align 8, !tbaa !397
  %33 = getelementptr inbounds nuw i8, ptr %32, i64 1048
  %34 = load i32, ptr %33, align 8, !tbaa !828
  %35 = icmp eq i32 %0, %34
  br i1 %35, label %36, label %.loopexit

36:                                               ; preds = %30
  call void @llvm.lifetime.start.p0(i64 8, ptr nonnull %2) #44
  store i32 %0, ptr %2, align 4, !tbaa !1070
  %37 = getelementptr inbounds nuw i8, ptr %2, i64 4
  %38 = getelementptr inbounds nuw i8, ptr %32, i64 16
  %39 = load i32, ptr %38, align 8, !tbaa !684
  store i32 %39, ptr %37, align 4, !tbaa !1072
  call void @_ZN8ImVectorI19ImGuiFocusScopeDataE9push_backERKS0_(ptr noundef nonnull align 8 dereferenceable(16) %6, ptr noundef nonnull align 4 dereferenceable(8) %2)
  call void @llvm.lifetime.end.p0(i64 8, ptr nonnull %2) #44
  br label %.critedge

.critedge:                                        ; preds = %28, %19, %12, %36
  %40 = getelementptr inbounds nuw i8, ptr %4, i64 7904
  %41 = load ptr, ptr %40, align 8, !tbaa !397
  %.0.in30 = getelementptr inbounds nuw i8, ptr %41, i64 976
  %.031 = load ptr, ptr %.0.in30, align 8, !tbaa !1069
  %.not32 = icmp eq ptr %.031, null
  br i1 %.not32, label %.loopexit, label %.lr.ph34

.lr.ph34:                                         ; preds = %.critedge
  %42 = getelementptr inbounds nuw i8, ptr %3, i64 4
  br label %43

43:                                               ; preds = %.lr.ph34, %43
  %.033 = phi ptr [ %.031, %.lr.ph34 ], [ %.0, %43 ]
  call void @llvm.lifetime.start.p0(i64 8, ptr nonnull %3) #44
  %44 = getelementptr inbounds nuw i8, ptr %.033, i64 1048
  %45 = load i32, ptr %44, align 8, !tbaa !828
  store i32 %45, ptr %3, align 4, !tbaa !1070
  %46 = getelementptr inbounds nuw i8, ptr %.033, i64 16
  %47 = load i32, ptr %46, align 8, !tbaa !684
  store i32 %47, ptr %42, align 4, !tbaa !1072
  call void @_ZN8ImVectorI19ImGuiFocusScopeDataE9push_backERKS0_(ptr noundef nonnull align 8 dereferenceable(16) %6, ptr noundef nonnull align 4 dereferenceable(8) %3)
  call void @llvm.lifetime.end.p0(i64 8, ptr nonnull %3) #44
  %.0.in = getelementptr inbounds nuw i8, ptr %.033, i64 976
  %.0 = load ptr, ptr %.0.in, align 8, !tbaa !1069
  %.not = icmp eq ptr %.0, null
  br i1 %.not, label %.loopexit, label %43, !llvm.loop !1289

.loopexit:                                        ; preds = %43, %.critedge, %30, %1
  ret void
}